; Function Attrs: nounwind uwtable
define dso_local range(i32 -30, 1) i32 @archive_read_set_callback_data2(ptr noundef %0, ptr noundef %1, i32 noundef %2) local_unnamed_addr #0 {
  %4 = tail call i32 @__archive_check_magic(ptr noundef %0, i32 noundef 14594245, i32 noundef 1, ptr noundef nonnull @.str.7) #15
  %.not = icmp eq i32 %4, -30
  br i1 %.not, label %26, label %5

5:                                                ; preds = %3
  %6 = getelementptr inbounds nuw i8, ptr %0, i64 224
  %7 = load i32, ptr %6, align 8, !tbaa !35
  %8 = icmp eq i32 %7, 0
  br i1 %8, label %9, label %15

9:                                                ; preds = %5
  %10 = tail call noalias dereferenceable_or_null(24) ptr @calloc(i64 noundef 1, i64 noundef 24) #14
  %11 = getelementptr inbounds nuw i8, ptr %0, i64 240
  store ptr %10, ptr %11, align 8, !tbaa !36
  %12 = icmp eq ptr %10, null
  br i1 %12, label %13, label %14

13:                                               ; preds = %9
  tail call void (ptr, i32, ptr, ...) @archive_set_error(ptr noundef nonnull %0, i32 noundef 12, ptr noundef nonnull @.str.8) #15
  br label %26

14:                                               ; preds = %9
  store i32 1, ptr %6, align 8, !tbaa !35
  br label %15

15:                                               ; preds = %14, %5
  %16 = phi i32 [ 1, %14 ], [ %7, %5 ]
  %17 = add i32 %16, -1
  %18 = icmp ugt i32 %2, %17
  br i1 %18, label %19, label %20

19:                                               ; preds = %15
  tail call void (ptr, i32, ptr, ...) @archive_set_error(ptr noundef nonnull %0, i32 noundef 22, ptr noundef nonnull @.str.9) #15
  br label %26

20:                                               ; preds = %15
  %21 = getelementptr inbounds nuw i8, ptr %0, i64 240
  %22 = load ptr, ptr %21, align 8, !tbaa !36
  %23 = zext i32 %2 to i64
  %24 = getelementptr inbounds nuw %struct.archive_read_data_node, ptr %22, i64 %23, i32 2
  store ptr %1, ptr %24, align 8, !tbaa !37
  %25 = getelementptr inbounds nuw %struct.archive_read_data_node, ptr %22, i64 %23
  tail call void @llvm.memset.p0.i64(ptr noundef nonnull align 8 dereferenceable(16) %25, i8 -1, i64 16, i1 false)
  br label %26

26:                                               ; preds = %3, %20, %19, %13
  %.1 = phi i32 [ -30, %13 ], [ -30, %19 ], [ 0, %20 ], [ -30, %3 ]
  ret i32 %.1
}